target datalayout = "e-m:e-p270:32:32-p271:32:32-p272:64:64-i64:64-i128:128-f80:128-n8:16:32:64-S128"
target triple = "x86_64-pc-linux-gnu"

%struct.expert_field = type { i32, i32 }
%struct._packet_info = type { ptr, ptr, i32, i32, %struct.nstime_t, %struct.nstime_t, %struct.nstime_t, i8, ptr, ptr, ptr, ptr, %struct._address, %struct._address, %struct._address, %struct._address, %struct._address, %struct._address, i32, ptr, i8, [3 x i8], %struct.anon, i32, i32, i32, i32, ptr, i8, ptr, ptr, i16, i16, i32, i32, i16, i32, i32, ptr, ptr, ptr, i8, i8, i16, i16, i16, i32, i16, i16, ptr, ptr, ptr, ptr, ptr, i32, i32 }
%struct.nstime_t = type { i64, i32 }
%struct._address = type { i32, i32, ptr, ptr }
%struct.anon = type { i8, [3 x i8] }

@ei_gsm_a_gm_extraneous_data = internal global %struct.expert_field zeroinitializer, align 4
@.str.83 = private unnamed_addr constant [1 x i8] zeroinitializer, align 1
@ei_gsm_a_gm_missing_mandatory_element = internal global %struct.expert_field zeroinitializer, align 4
@.str.1095 = private unnamed_addr constant [62 x i8] c"Missing Mandatory element %s%s, rest of dissection is suspect\00", align 1
@.str.1135 = private unnamed_addr constant [27 x i8] c" - WLAN offload indication\00", align 1
@.str.1147 = private unnamed_addr constant [16 x i8] c" - Required QoS\00", align 1

; Function Attrs: null_pointer_is_valid sspstrong uwtable
define internal void @dtap_sm_req_sec_pdp_act(ptr noundef %0, ptr noundef %1, ptr noundef %2, i32 noundef %3, i32 noundef %4) #1 {
  %6 = alloca ptr, align 8
  %7 = alloca ptr, align 8
  %8 = alloca ptr, align 8
  %9 = alloca i32, align 4
  %10 = alloca i32, align 4
  %11 = alloca i32, align 4
  %12 = alloca i32, align 4
  %13 = alloca i32, align 4
  %14 = alloca i32, align 4
  store ptr %0, ptr %6, align 8
  store ptr %1, ptr %7, align 8
  store ptr %2, ptr %8, align 8
  store i32 %3, ptr %9, align 4
  store i32 %4, ptr %10, align 4
  call void @llvm.lifetime.start.p0(i64 4, ptr %11) #6
  call void @llvm.lifetime.start.p0(i64 4, ptr %12) #6
  call void @llvm.lifetime.start.p0(i64 4, ptr %13) #6
  %15 = load i32, ptr %9, align 4
  store i32 %15, ptr %11, align 4
  %16 = load i32, ptr %10, align 4
  store i32 %16, ptr %13, align 4
  %17 = load ptr, ptr %8, align 8
  %18 = getelementptr inbounds nuw %struct._packet_info, ptr %17, i32 0, i32 37
  store i32 -1, ptr %18, align 4
  %19 = load ptr, ptr %8, align 8
  %20 = getelementptr inbounds nuw %struct._packet_info, ptr %19, i32 0, i32 46
  store i32 1, ptr %20, align 8
  %21 = load i32, ptr %13, align 4
  %22 = icmp sgt i32 %21, 0
  br i1 %22, label %23, label %39

23:                                               ; preds = %5
  %24 = load ptr, ptr %6, align 8
  %25 = load ptr, ptr %7, align 8
  %26 = load ptr, ptr %8, align 8
  %27 = load i32, ptr %11, align 4
  %28 = load i32, ptr %13, align 4
  %29 = call zeroext i16 @elem_lv(ptr noundef %24, ptr noundef %25, ptr noundef %26, i32 noundef 5, i32 noundef 48, i32 noundef %27, i32 noundef %28, ptr noundef @.str.1147)
  %30 = zext i16 %29 to i32
  store i32 %30, ptr %12, align 4
  %31 = icmp ugt i32 %30, 0
  br i1 %31, label %32, label %39

32:                                               ; preds = %23
  %33 = load i32, ptr %12, align 4
  %34 = load i32, ptr %11, align 4
  %35 = add i32 %34, %33
  store i32 %35, ptr %11, align 4
  %36 = load i32, ptr %12, align 4
  %37 = load i32, ptr %13, align 4
  %38 = sub i32 %37, %36
  store i32 %38, ptr %13, align 4
  br label %46

39:                                               ; preds = %23, %5
  %40 = load ptr, ptr %7, align 8
  %41 = load ptr, ptr %8, align 8
  %42 = load ptr, ptr %6, align 8
  %43 = load i32, ptr %11, align 4
  %44 = call ptr @get_gsm_a_msg_string(i32 noundef 5, i32 noundef 48)
  %45 = call ptr (ptr, ptr, ptr, ptr, i32, i32, ptr, ...) @proto_tree_add_expert_format(ptr noundef %40, ptr noundef %41, ptr noundef @ei_gsm_a_gm_missing_mandatory_element, ptr noundef %42, i32 noundef %43, i32 noundef 0, ptr noundef @.str.1095, ptr noundef %44, ptr noundef @.str.1147)
  br label %46

46:                                               ; preds = %39, %32
  %47 = load i32, ptr %13, align 4
  %48 = icmp sgt i32 %47, 0
  br i1 %48, label %49, label %65

49:                                               ; preds = %46
  %50 = load ptr, ptr %6, align 8
  %51 = load ptr, ptr %7, align 8
  %52 = load ptr, ptr %8, align 8
  %53 = load i32, ptr %11, align 4
  %54 = load i32, ptr %13, align 4
  %55 = call zeroext i16 @elem_lv(ptr noundef %50, ptr noundef %51, ptr noundef %52, i32 noundef 5, i32 noundef 53, i32 noundef %53, i32 noundef %54, ptr noundef null)
  %56 = zext i16 %55 to i32
  store i32 %56, ptr %12, align 4
  %57 = icmp ugt i32 %56, 0
  br i1 %57, label %58, label %65

58:                                               ; preds = %49
  %59 = load i32, ptr %12, align 4
  %60 = load i32, ptr %11, align 4
  %61 = add i32 %60, %59
  store i32 %61, ptr %11, align 4
  %62 = load i32, ptr %12, align 4
  %63 = load i32, ptr %13, align 4
  %64 = sub i32 %63, %62
  store i32 %64, ptr %13, align 4
  br label %72

65:                                               ; preds = %49, %46
  %66 = load ptr, ptr %7, align 8
  %67 = load ptr, ptr %8, align 8
  %68 = load ptr, ptr %6, align 8
  %69 = load i32, ptr %11, align 4
  %70 = call ptr @get_gsm_a_msg_string(i32 noundef 5, i32 noundef 53)
  %71 = call ptr (ptr, ptr, ptr, ptr, i32, i32, ptr, ...) @proto_tree_add_expert_format(ptr noundef %66, ptr noundef %67, ptr noundef @ei_gsm_a_gm_missing_mandatory_element, ptr noundef %68, i32 noundef %69, i32 noundef 0, ptr noundef @.str.1095, ptr noundef %70, ptr noundef @.str.83)
  br label %72

72:                                               ; preds = %65, %58
  %73 = load i32, ptr %13, align 4
  %74 = icmp sle i32 %73, 0
  br i1 %74, label %75, label %76

75:                                               ; preds = %72
  store i32 1, ptr %14, align 4
  br label %207

76:                                               ; preds = %72
  %77 = load ptr, ptr %6, align 8
  %78 = load ptr, ptr %7, align 8
  %79 = load ptr, ptr %8, align 8
  %80 = load i32, ptr %11, align 4
  %81 = load i32, ptr %13, align 4
  %82 = call zeroext i16 @elem_tlv(ptr noundef %77, ptr noundef %78, ptr noundef %79, i8 noundef zeroext 54, i32 noundef 5, i32 noundef 57, i32 noundef %80, i32 noundef %81, ptr noundef null)
  %83 = zext i16 %82 to i32
  store i32 %83, ptr %12, align 4
  %84 = icmp ugt i32 %83, 0
  br i1 %84, label %85, label %92

85:                                               ; preds = %76
  %86 = load i32, ptr %12, align 4
  %87 = load i32, ptr %11, align 4
  %88 = add i32 %87, %86
  store i32 %88, ptr %11, align 4
  %89 = load i32, ptr %12, align 4
  %90 = load i32, ptr %13, align 4
  %91 = sub i32 %90, %89
  store i32 %91, ptr %13, align 4
  br label %92

92:                                               ; preds = %85, %76
  %93 = load i32, ptr %13, align 4
  %94 = icmp sle i32 %93, 0
  br i1 %94, label %95, label %96

95:                                               ; preds = %92
  store i32 1, ptr %14, align 4
  br label %207

96:                                               ; preds = %92
  %97 = load ptr, ptr %6, align 8
  %98 = load ptr, ptr %7, align 8
  %99 = load ptr, ptr %8, align 8
  %100 = load i32, ptr %11, align 4
  %101 = load i32, ptr %13, align 4
  %102 = call zeroext i16 @elem_tlv(ptr noundef %97, ptr noundef %98, ptr noundef %99, i8 noundef zeroext 39, i32 noundef 5, i32 noundef 45, i32 noundef %100, i32 noundef %101, ptr noundef null)
  %103 = zext i16 %102 to i32
  store i32 %103, ptr %12, align 4
  %104 = icmp ugt i32 %103, 0
  br i1 %104, label %105, label %112

105:                                              ; preds = %96
  %106 = load i32, ptr %12, align 4
  %107 = load i32, ptr %11, align 4
  %108 = add i32 %107, %106
  store i32 %108, ptr %11, align 4
  %109 = load i32, ptr %12, align 4
  %110 = load i32, ptr %13, align 4
  %111 = sub i32 %110, %109
  store i32 %111, ptr %13, align 4
  br label %112

112:                                              ; preds = %105, %96
  %113 = load i32, ptr %13, align 4
  %114 = icmp sle i32 %113, 0
  br i1 %114, label %115, label %116

115:                                              ; preds = %112
  store i32 1, ptr %14, align 4
  br label %207

116:                                              ; preds = %112
  %117 = load ptr, ptr %6, align 8
  %118 = load ptr, ptr %7, align 8
  %119 = load ptr, ptr %8, align 8
  %120 = load i32, ptr %11, align 4
  %121 = call zeroext i16 @elem_tv_short(ptr noundef %117, ptr noundef %118, ptr noundef %119, i8 noundef zeroext -64, i32 noundef 5, i32 noundef 65, i32 noundef %120, ptr noundef @.str.1135)
  %122 = zext i16 %121 to i32
  store i32 %122, ptr %12, align 4
  %123 = icmp ugt i32 %122, 0
  br i1 %123, label %124, label %131

124:                                              ; preds = %116
  %125 = load i32, ptr %12, align 4
  %126 = load i32, ptr %11, align 4
  %127 = add i32 %126, %125
  store i32 %127, ptr %11, align 4
  %128 = load i32, ptr %12, align 4
  %129 = load i32, ptr %13, align 4
  %130 = sub i32 %129, %128
  store i32 %130, ptr %13, align 4
  br label %131

131:                                              ; preds = %124, %116
  %132 = load i32, ptr %13, align 4
  %133 = icmp sle i32 %132, 0
  br i1 %133, label %134, label %135

134:                                              ; preds = %131
  store i32 1, ptr %14, align 4
  br label %207

135:                                              ; preds = %131
  %136 = load ptr, ptr %6, align 8
  %137 = load ptr, ptr %7, align 8
  %138 = load ptr, ptr %8, align 8
  %139 = load i32, ptr %11, align 4
  %140 = load i32, ptr %13, align 4
  %141 = call zeroext i16 @elem_tlv(ptr noundef %136, ptr noundef %137, ptr noundef %138, i8 noundef zeroext 51, i32 noundef 5, i32 noundef 66, i32 noundef %139, i32 noundef %140, ptr noundef null)
  %142 = zext i16 %141 to i32
  store i32 %142, ptr %12, align 4
  %143 = icmp ugt i32 %142, 0
  br i1 %143, label %144, label %151

144:                                              ; preds = %135
  %145 = load i32, ptr %12, align 4
  %146 = load i32, ptr %11, align 4
  %147 = add i32 %146, %145
  store i32 %147, ptr %11, align 4
  %148 = load i32, ptr %12, align 4
  %149 = load i32, ptr %13, align 4
  %150 = sub i32 %149, %148
  store i32 %150, ptr %13, align 4
  br label %151

151:                                              ; preds = %144, %135
  %152 = load i32, ptr %13, align 4
  %153 = icmp sle i32 %152, 0
  br i1 %153, label %154, label %155

154:                                              ; preds = %151
  store i32 1, ptr %14, align 4
  br label %207

155:                                              ; preds = %151
  %156 = load ptr, ptr %6, align 8
  %157 = load ptr, ptr %7, align 8
  %158 = load ptr, ptr %8, align 8
  %159 = load i32, ptr %11, align 4
  %160 = load i32, ptr %13, align 4
  %161 = call zeroext i16 @elem_tlv_e(ptr noundef %156, ptr noundef %157, ptr noundef %158, i8 noundef zeroext 123, i32 noundef 5, i32 noundef 46, i32 noundef %159, i32 noundef %160, ptr noundef null)
  %162 = zext i16 %161 to i32
  store i32 %162, ptr %12, align 4
  %163 = icmp ugt i32 %162, 0
  br i1 %163, label %164, label %171

164:                                              ; preds = %155
  %165 = load i32, ptr %12, align 4
  %166 = load i32, ptr %11, align 4
  %167 = add i32 %166, %165
  store i32 %167, ptr %11, align 4
  %168 = load i32, ptr %12, align 4
  %169 = load i32, ptr %13, align 4
  %170 = sub i32 %169, %168
  store i32 %170, ptr %13, align 4
  br label %171

171:                                              ; preds = %164, %155
  %172 = load i32, ptr %13, align 4
  %173 = icmp sle i32 %172, 0
  br i1 %173, label %174, label %175

174:                                              ; preds = %171
  store i32 1, ptr %14, align 4
  br label %207

175:                                              ; preds = %171
  %176 = load ptr, ptr %6, align 8
  %177 = load ptr, ptr %7, align 8
  %178 = load ptr, ptr %8, align 8
  %179 = load i32, ptr %11, align 4
  %180 = load i32, ptr %13, align 4
  %181 = call zeroext i16 @elem_tlv(ptr noundef %176, ptr noundef %177, ptr noundef %178, i8 noundef zeroext 92, i32 noundef 5, i32 noundef 50, i32 noundef %179, i32 noundef %180, ptr noundef null)
  %182 = zext i16 %181 to i32
  store i32 %182, ptr %12, align 4
  %183 = icmp ugt i32 %182, 0
  br i1 %183, label %184, label %191

184:                                              ; preds = %175
  %185 = load i32, ptr %12, align 4
  %186 = load i32, ptr %11, align 4
  %187 = add i32 %186, %185
  store i32 %187, ptr %11, align 4
  %188 = load i32, ptr %12, align 4
  %189 = load i32, ptr %13, align 4
  %190 = sub i32 %189, %188
  store i32 %190, ptr %13, align 4
  br label %191

191:                                              ; preds = %184, %175
  %192 = load i32, ptr %13, align 4
  %193 = icmp ugt i32 %192, 0
  br i1 %193, label %194, label %206

194:                                              ; preds = %191
  %195 = load ptr, ptr %7, align 8
  %196 = load ptr, ptr %8, align 8
  %197 = load ptr, ptr %6, align 8
  %198 = load i32, ptr %11, align 4
  %199 = load i32, ptr %13, align 4
  %200 = sub i32 %199, 0
  %201 = call ptr @proto_tree_add_expert(ptr noundef %195, ptr noundef %196, ptr noundef @ei_gsm_a_gm_extraneous_data, ptr noundef %197, i32 noundef %198, i32 noundef %200)
  %202 = load i32, ptr %13, align 4
  %203 = sub i32 %202, 0
  %204 = load i32, ptr %11, align 4
  %205 = add i32 %204, %203
  store i32 %205, ptr %11, align 4
  br label %206

206:                                              ; preds = %194, %191
  store i32 0, ptr %14, align 4
  br label %207

207:                                              ; preds = %206, %174, %154, %134, %115, %95, %75
  call void @llvm.lifetime.end.p0(i64 4, ptr %13) #6
  call void @llvm.lifetime.end.p0(i64 4, ptr %12) #6
  call void @llvm.lifetime.end.p0(i64 4, ptr %11) #6
  %208 = load i32, ptr %14, align 4
  switch i32 %208, label %210 [
    i32 0, label %209
    i32 1, label %209
  ]

209:                                              ; preds = %207, %207
  ret void

210:                                              ; preds = %207
  unreachable
}