; Function Attrs: null_pointer_is_valid sspstrong uwtable
define internal void @dtap_sm_req_sec_pdp_act(ptr noundef %0, ptr noundef %1, ptr noundef initializes((348, 352), (384, 388)) %2, i32 noundef %3, i32 noundef %4) #1 {
  %6 = getelementptr inbounds nuw i8, ptr %2, i64 348
  store i32 -1, ptr %6, align 4
  %7 = getelementptr inbounds nuw i8, ptr %2, i64 384
  store i32 1, ptr %7, align 8
  %8 = icmp sgt i32 %4, 0
  br i1 %8, label %9, label %15

9:                                                ; preds = %5
  %10 = tail call zeroext i16 @elem_lv(ptr noundef %0, ptr noundef %1, ptr noundef %2, i32 noundef 5, i32 noundef 48, i32 noundef %3, i32 noundef %4, ptr noundef nonnull @.str.1147)
  %.not = icmp eq i16 %10, 0
  br i1 %.not, label %15, label %11

11:                                               ; preds = %9
  %12 = zext i16 %10 to i32
  %13 = add i32 %3, %12
  %14 = sub nsw i32 %4, %12
  br label %18

15:                                               ; preds = %9, %5
  %16 = tail call ptr @get_gsm_a_msg_string(i32 noundef 5, i32 noundef 48)
  %17 = tail call ptr (ptr, ptr, ptr, ptr, i32, i32, ptr, ...) @proto_tree_add_expert_format(ptr noundef %1, ptr noundef %2, ptr noundef nonnull @ei_gsm_a_gm_missing_mandatory_element, ptr noundef %0, i32 noundef %3, i32 noundef 0, ptr noundef nonnull @.str.1095, ptr noundef %16, ptr noundef nonnull @.str.1147)
  br label %18

18:                                               ; preds = %15, %11
  %.098 = phi i32 [ %13, %11 ], [ %3, %15 ]
  %.0 = phi i32 [ %14, %11 ], [ %4, %15 ]
  %19 = icmp sgt i32 %.0, 0
  br i1 %19, label %20, label %26

20:                                               ; preds = %18
  %21 = tail call zeroext i16 @elem_lv(ptr noundef %0, ptr noundef %1, ptr noundef %2, i32 noundef 5, i32 noundef 53, i32 noundef %.098, i32 noundef %.0, ptr noundef null)
  %.not115 = icmp eq i16 %21, 0
  br i1 %.not115, label %26, label %22

22:                                               ; preds = %20
  %23 = zext i16 %21 to i32
  %24 = add i32 %.098, %23
  %25 = sub nsw i32 %.0, %23
  br label %29

26:                                               ; preds = %20, %18
  %27 = tail call ptr @get_gsm_a_msg_string(i32 noundef 5, i32 noundef 53)
  %28 = tail call ptr (ptr, ptr, ptr, ptr, i32, i32, ptr, ...) @proto_tree_add_expert_format(ptr noundef %1, ptr noundef %2, ptr noundef nonnull @ei_gsm_a_gm_missing_mandatory_element, ptr noundef %0, i32 noundef %.098, i32 noundef 0, ptr noundef nonnull @.str.1095, ptr noundef %27, ptr noundef nonnull @.str.83)
  br label %29

29:                                               ; preds = %26, %22
  %.199 = phi i32 [ %24, %22 ], [ %.098, %26 ]
  %.1 = phi i32 [ %25, %22 ], [ %.0, %26 ]
  %30 = icmp slt i32 %.1, 1
  br i1 %30, label %68, label %31

31:                                               ; preds = %29
  %32 = tail call zeroext i16 @elem_tlv(ptr noundef %0, ptr noundef %1, ptr noundef %2, i8 noundef zeroext 54, i32 noundef 5, i32 noundef 57, i32 noundef %.199, i32 noundef %.1, ptr noundef null)
  %33 = zext i16 %32 to i32
  %34 = sub nsw i32 %.1, %33
  %35 = icmp slt i32 %34, 1
  br i1 %35, label %68, label %36

36:                                               ; preds = %31
  %37 = add i32 %.199, %33
  %38 = tail call zeroext i16 @elem_tlv(ptr noundef %0, ptr noundef %1, ptr noundef %2, i8 noundef zeroext 39, i32 noundef 5, i32 noundef 45, i32 noundef %37, i32 noundef %34, ptr noundef null)
  %39 = zext i16 %38 to i32
  %40 = sub nsw i32 %34, %39
  %41 = icmp slt i32 %40, 1
  br i1 %41, label %68, label %42

42:                                               ; preds = %36
  %43 = add i32 %37, %39
  %44 = tail call zeroext i16 @elem_tv_short(ptr noundef %0, ptr noundef %1, ptr noundef %2, i8 noundef zeroext -64, i32 noundef 5, i32 noundef 65, i32 noundef %43, ptr noundef nonnull @.str.1135)
  %45 = zext i16 %44 to i32
  %46 = sub nsw i32 %40, %45
  %47 = icmp slt i32 %46, 1
  br i1 %47, label %68, label %48

48:                                               ; preds = %42
  %49 = add i32 %43, %45
  %50 = tail call zeroext i16 @elem_tlv(ptr noundef %0, ptr noundef %1, ptr noundef %2, i8 noundef zeroext 51, i32 noundef 5, i32 noundef 66, i32 noundef %49, i32 noundef %46, ptr noundef null)
  %51 = zext i16 %50 to i32
  %52 = sub nsw i32 %46, %51
  %53 = icmp slt i32 %52, 1
  br i1 %53, label %68, label %54

54:                                               ; preds = %48
  %55 = add i32 %49, %51
  %56 = tail call zeroext i16 @elem_tlv_e(ptr noundef %0, ptr noundef %1, ptr noundef %2, i8 noundef zeroext 123, i32 noundef 5, i32 noundef 46, i32 noundef %55, i32 noundef %52, ptr noundef null)
  %57 = zext i16 %56 to i32
  %58 = sub nsw i32 %52, %57
  %59 = icmp slt i32 %58, 1
  br i1 %59, label %68, label %60

60:                                               ; preds = %54
  %61 = add i32 %55, %57
  %62 = tail call zeroext i16 @elem_tlv(ptr noundef %0, ptr noundef %1, ptr noundef %2, i8 noundef zeroext 92, i32 noundef 5, i32 noundef 50, i32 noundef %61, i32 noundef %58, ptr noundef null)
  %63 = zext i16 %62 to i32
  %.not122 = icmp eq i32 %58, %63
  br i1 %.not122, label %68, label %64

64:                                               ; preds = %60
  %65 = sub nsw i32 %58, %63
  %66 = add i32 %61, %63
  %67 = tail call ptr @proto_tree_add_expert(ptr noundef %1, ptr noundef %2, ptr noundef nonnull @ei_gsm_a_gm_extraneous_data, ptr noundef %0, i32 noundef %66, i32 noundef %65)
  br label %68

68:                                               ; preds = %60, %64, %54, %48, %42, %36, %31, %29
  ret void
}